target datalayout = "e-m:e-p270:32:32-p271:32:32-p272:64:64-i64:64-i128:128-f80:128-n8:16:32:64-S128"
target triple = "x86_64-pc-linux-gnu"

@stderr = external global ptr, align 8
@.str.102 = private unnamed_addr constant [29 x i8] c"Illegal size specifier '%c'\0A\00", align 1

; Function Attrs: nounwind uwtable
define internal i64 @parse_size_directive(ptr noundef %0) #0 {
  %2 = alloca ptr, align 8
  %3 = alloca i64, align 8
  %4 = alloca ptr, align 8
  store ptr %0, ptr %2, align 8
  %5 = load ptr, ptr %2, align 8
  %6 = call i64 @strtoull(ptr noundef %5, ptr noundef %4, i32 noundef 10) #12
  store i64 %6, ptr %3, align 8
  %7 = load ptr, ptr %4, align 8
  %8 = icmp ne ptr %7, null
  br i1 %8, label %9, label %57

9:                                                ; preds = %1
  %10 = load ptr, ptr %4, align 8
  %11 = load i8, ptr %10, align 1
  %12 = sext i8 %11 to i32
  %13 = icmp ne i32 %12, 0
  br i1 %13, label %14, label %57

14:                                               ; preds = %9
  br label %15

15:                                               ; preds = %34, %14
  %16 = load ptr, ptr %4, align 8
  %17 = load i8, ptr %16, align 1
  %18 = sext i8 %17 to i32
  %19 = icmp ne i32 %18, 0
  br i1 %19, label %20, label %32

20:                                               ; preds = %15
  %21 = load ptr, ptr %4, align 8
  %22 = load i8, ptr %21, align 1
  %23 = sext i8 %22 to i32
  %24 = icmp eq i32 %23, 32
  br i1 %24, label %30, label %25

25:                                               ; preds = %20
  %26 = load ptr, ptr %4, align 8
  %27 = load i8, ptr %26, align 1
  %28 = sext i8 %27 to i32
  %29 = icmp eq i32 %28, 9
  br label %30

30:                                               ; preds = %25, %20
  %31 = phi i1 [ true, %20 ], [ %29, %25 ]
  br label %32

32:                                               ; preds = %30, %15
  %33 = phi i1 [ false, %15 ], [ %31, %30 ]
  br i1 %33, label %34, label %37

34:                                               ; preds = %32
  %35 = load ptr, ptr %4, align 8
  %36 = getelementptr inbounds i8, ptr %35, i32 1
  store ptr %36, ptr %4, align 8
  br label %15

37:                                               ; preds = %32
  %38 = load ptr, ptr %4, align 8
  %39 = load i8, ptr %38, align 1
  %40 = sext i8 %39 to i32
  switch i32 %40, label %50 [
    i32 75, label %41
    i32 107, label %41
    i32 77, label %44
    i32 109, label %44
    i32 71, label %47
    i32 103, label %47
  ]

41:                                               ; preds = %37, %37
  %42 = load i64, ptr %3, align 8
  %43 = mul i64 %42, 1024
  store i64 %43, ptr %3, align 8
  br label %56

44:                                               ; preds = %37, %37
  %45 = load i64, ptr %3, align 8
  %46 = mul i64 %45, 1048576
  store i64 %46, ptr %3, align 8
  br label %56

47:                                               ; preds = %37, %37
  %48 = load i64, ptr %3, align 8
  %49 = mul i64 %48, 1073741824
  store i64 %49, ptr %3, align 8
  br label %56

50:                                               ; preds = %37
  %51 = load ptr, ptr @stderr, align 8
  %52 = load ptr, ptr %4, align 8
  %53 = load i8, ptr %52, align 1
  %54 = sext i8 %53 to i32
  %55 = call i32 (ptr, ptr, ...) @fprintf(ptr noundef %51, ptr noundef @.str.102, i32 noundef %54) #12
  call void @exit(i32 noundef 1) #16
  unreachable

56:                                               ; preds = %47, %44, %41
  br label %57

57:                                               ; preds = %56, %9, %1
  %58 = load i64, ptr %3, align 8
  ret i64 %58
}