; Function Attrs: nounwind uwtable
define internal fastcc i64 @parse_size_directive(ptr noundef %0) unnamed_addr #0 {
  %2 = alloca ptr, align 8
  %3 = call i64 @strtoull(ptr noundef %0, ptr noundef nonnull %2, i32 noundef 10) #18
  %4 = load ptr, ptr %2, align 8
  %.not = icmp eq ptr %4, null
  br i1 %.not, label %20, label %5

5:                                                ; preds = %1
  %6 = load i8, ptr %4, align 1
  %.not8 = icmp eq i8 %6, 0
  br i1 %.not8, label %20, label %.preheader

.preheader:                                       ; preds = %5, %.critedge2
  %7 = phi i8 [ %.pre, %.critedge2 ], [ %6, %5 ]
  %8 = phi ptr [ %9, %.critedge2 ], [ %4, %5 ]
  switch i8 %7, label %16 [
    i8 9, label %.critedge2
    i8 32, label %.critedge2
    i8 75, label %10
    i8 107, label %10
    i8 77, label %12
    i8 109, label %12
    i8 71, label %14
    i8 103, label %14
  ]

.critedge2:                                       ; preds = %.preheader, %.preheader
  %9 = getelementptr inbounds i8, ptr %8, i64 1
  %.pre = load i8, ptr %9, align 1
  br label %.preheader

10:                                               ; preds = %.preheader, %.preheader
  %11 = shl i64 %3, 10
  br label %20

12:                                               ; preds = %.preheader, %.preheader
  %13 = shl i64 %3, 20
  br label %20

14:                                               ; preds = %.preheader, %.preheader
  %15 = shl i64 %3, 30
  br label %20

16:                                               ; preds = %.preheader
  %17 = sext i8 %7 to i32
  %18 = load ptr, ptr @stderr, align 8
  %19 = tail call i32 (ptr, ptr, ...) @fprintf(ptr noundef %18, ptr noundef nonnull @.str.102, i32 noundef %17) #22
  tail call void @exit(i32 noundef 1) #23
  unreachable

20:                                               ; preds = %10, %12, %14, %5, %1
  %.0 = phi i64 [ %15, %14 ], [ %13, %12 ], [ %11, %10 ], [ %3, %5 ], [ %3, %1 ]
  ret i64 %.0
}